target datalayout = "e-m:e-p270:32:32-p271:32:32-p272:64:64-i64:64-i128:128-f80:128-n8:16:32:64-S128"
target triple = "x86_64-pc-linux-gnu"

%struct.cbs_st = type { ptr, i64 }

@.str = private unnamed_addr constant [118 x i8] c"generated/home/dtcxzyw/WorkSpace/Projects/compilers/llvm-opt-benchmark/bench/libquic/libquic/boringssl/ssl/ssl_asn1.c\00", align 1

; Function Attrs: nounwind uwtable
define internal i32 @SSL_SESSION_parse_string(ptr noundef %0, ptr noundef %1, i32 noundef %2) #0 {
  %4 = alloca i32, align 4
  %5 = alloca ptr, align 8
  %6 = alloca ptr, align 8
  %7 = alloca i32, align 4
  %8 = alloca %struct.cbs_st, align 8
  %9 = alloca i32, align 4
  %10 = alloca i32, align 4
  store ptr %0, ptr %5, align 8, !tbaa !52
  store ptr %1, ptr %6, align 8, !tbaa !11
  store i32 %2, ptr %7, align 4, !tbaa !15
  call void @llvm.lifetime.start.p0(i64 16, ptr %8) #6
  call void @llvm.lifetime.start.p0(i64 4, ptr %9) #6
  %11 = load ptr, ptr %5, align 8, !tbaa !52
  %12 = load i32, ptr %7, align 4, !tbaa !15
  %13 = call i32 @CBS_get_optional_asn1_octet_string(ptr noundef %11, ptr noundef %8, ptr noundef %9, i32 noundef %12)
  %14 = icmp ne i32 %13, 0
  br i1 %14, label %16, label %15

15:                                               ; preds = %3
  call void @ERR_put_error(i32 noundef 16, i32 noundef 0, i32 noundef 160, ptr noundef @.str, i32 noundef 414)
  store i32 0, ptr %4, align 4
  store i32 1, ptr %10, align 4
  br label %34

16:                                               ; preds = %3
  %17 = load i32, ptr %9, align 4, !tbaa !15
  %18 = icmp ne i32 %17, 0
  br i1 %18, label %19, label %29

19:                                               ; preds = %16
  %20 = call i32 @CBS_contains_zero_byte(ptr noundef %8)
  %21 = icmp ne i32 %20, 0
  br i1 %21, label %22, label %23

22:                                               ; preds = %19
  call void @ERR_put_error(i32 noundef 16, i32 noundef 0, i32 noundef 160, ptr noundef @.str, i32 noundef 419)
  store i32 0, ptr %4, align 4
  store i32 1, ptr %10, align 4
  br label %34

23:                                               ; preds = %19
  %24 = load ptr, ptr %6, align 8, !tbaa !11
  %25 = call i32 @CBS_strdup(ptr noundef %8, ptr noundef %24)
  %26 = icmp ne i32 %25, 0
  br i1 %26, label %28, label %27

27:                                               ; preds = %23
  call void @ERR_put_error(i32 noundef 16, i32 noundef 0, i32 noundef 65, ptr noundef @.str, i32 noundef 423)
  store i32 0, ptr %4, align 4
  store i32 1, ptr %10, align 4
  br label %34

28:                                               ; preds = %23
  br label %33

29:                                               ; preds = %16
  %30 = load ptr, ptr %6, align 8, !tbaa !11
  %31 = load ptr, ptr %30, align 8, !tbaa !51
  call void @free(ptr noundef %31) #6
  %32 = load ptr, ptr %6, align 8, !tbaa !11
  store ptr null, ptr %32, align 8, !tbaa !51
  br label %33

33:                                               ; preds = %29, %28
  store i32 1, ptr %4, align 4
  store i32 1, ptr %10, align 4
  br label %34

34:                                               ; preds = %33, %27, %22, %15
  call void @llvm.lifetime.end.p0(i64 4, ptr %9) #6
  call void @llvm.lifetime.end.p0(i64 16, ptr %8) #6
  %35 = load i32, ptr %4, align 4
  ret i32 %35
}