; Function Attrs: nounwind uwtable
define internal fastcc range(i32 0, 2) i32 @SSL_SESSION_parse_string(ptr noundef nonnull %0, ptr noundef nonnull %1, i32 noundef range(i32 166, 169) %2) unnamed_addr #0 {
  %4 = alloca %struct.cbs_st, align 8
  %5 = alloca i32, align 4
  call void @llvm.lifetime.start.p0(i64 16, ptr nonnull %4) #7
  call void @llvm.lifetime.start.p0(i64 4, ptr nonnull %5) #7
  %6 = call i32 @CBS_get_optional_asn1_octet_string(ptr noundef nonnull %0, ptr noundef nonnull %4, ptr noundef nonnull %5, i32 noundef %2) #7
  %.not = icmp eq i32 %6, 0
  br i1 %.not, label %7, label %8

7:                                                ; preds = %3
  call void @ERR_put_error(i32 noundef 16, i32 noundef 0, i32 noundef 160, ptr noundef nonnull @.str, i32 noundef 414) #7
  br label %18

8:                                                ; preds = %3
  %9 = load i32, ptr %5, align 4, !tbaa !48
  %.not5 = icmp eq i32 %9, 0
  br i1 %.not5, label %16, label %10

10:                                               ; preds = %8
  %11 = call i32 @CBS_contains_zero_byte(ptr noundef nonnull %4) #7
  %.not6 = icmp eq i32 %11, 0
  br i1 %.not6, label %13, label %12

12:                                               ; preds = %10
  call void @ERR_put_error(i32 noundef 16, i32 noundef 0, i32 noundef 160, ptr noundef nonnull @.str, i32 noundef 419) #7
  br label %18

13:                                               ; preds = %10
  %14 = call i32 @CBS_strdup(ptr noundef nonnull %4, ptr noundef nonnull %1) #7
  %.not7 = icmp eq i32 %14, 0
  br i1 %.not7, label %15, label %18

15:                                               ; preds = %13
  call void @ERR_put_error(i32 noundef 16, i32 noundef 0, i32 noundef 65, ptr noundef nonnull @.str, i32 noundef 423) #7
  br label %18

16:                                               ; preds = %8
  %17 = load ptr, ptr %1, align 8, !tbaa !45
  call void @free(ptr noundef %17) #7
  store ptr null, ptr %1, align 8, !tbaa !45
  br label %18

18:                                               ; preds = %16, %13, %15, %12, %7
  %.0 = phi i32 [ 0, %12 ], [ 0, %15 ], [ 0, %7 ], [ 1, %13 ], [ 1, %16 ]
  call void @llvm.lifetime.end.p0(i64 4, ptr nonnull %5) #7
  call void @llvm.lifetime.end.p0(i64 16, ptr nonnull %4) #7
  ret i32 %.0
}